	.file	"pasw.c"
	.text
	.def	scanf;	.scl	3;	.type	32;	.endef
	.seh_proc	scanf
scanf:
	pushq	%rbp
	.seh_pushreg	%rbp
	pushq	%rbx
	.seh_pushreg	%rbx
	subq	$56, %rsp
	.seh_stackalloc	56
	leaq	48(%rsp), %rbp
	.seh_setframe	%rbp, 48
	.seh_endprologue
	movq	%rcx, 32(%rbp)
	movq	%rdx, 40(%rbp)
	movq	%r8, 48(%rbp)
	movq	%r9, 56(%rbp)
	leaq	40(%rbp), %rax
	movq	%rax, -16(%rbp)
	movq	-16(%rbp), %rbx
	movl	$0, %ecx
	movq	__imp___acrt_iob_func(%rip), %rax
	call	*%rax
	movq	%rax, %rcx
	movq	32(%rbp), %rax
	movq	%rbx, %r8
	movq	%rax, %rdx
	call	__mingw_vfscanf
	movl	%eax, -4(%rbp)
	movl	-4(%rbp), %eax
	addq	$56, %rsp
	popq	%rbx
	popq	%rbp
	ret
	.seh_endproc
	.def	printf;	.scl	3;	.type	32;	.endef
	.seh_proc	printf
printf:
	pushq	%rbp
	.seh_pushreg	%rbp
	pushq	%rbx
	.seh_pushreg	%rbx
	subq	$56, %rsp
	.seh_stackalloc	56
	leaq	48(%rsp), %rbp
	.seh_setframe	%rbp, 48
	.seh_endprologue
	movq	%rcx, 32(%rbp)
	movq	%rdx, 40(%rbp)
	movq	%r8, 48(%rbp)
	movq	%r9, 56(%rbp)
	leaq	40(%rbp), %rax
	movq	%rax, -16(%rbp)
	movq	-16(%rbp), %rbx
	movl	$1, %ecx
	movq	__imp___acrt_iob_func(%rip), %rax
	call	*%rax
	movq	%rax, %rcx
	movq	32(%rbp), %rax
	movq	%rbx, %r8
	movq	%rax, %rdx
	call	__mingw_vfprintf
	movl	%eax, -4(%rbp)
	movl	-4(%rbp), %eax
	addq	$56, %rsp
	popq	%rbx
	popq	%rbp
	ret
	.seh_endproc
	.section .rdata,"dr"
.LC0:
	.ascii "sry, wrong guess \12\0"
.LC1:
	.ascii "Enter your guess: \0"
.LC2:
	.ascii "%d\0"
.LC3:
	.ascii "You guessed correctly\0"
	.text
	.globl	main
	.def	main;	.scl	2;	.type	32;	.endef
	.seh_proc	main
main:
	pushq	%rbp
	.seh_pushreg	%rbp
	movq	%rsp, %rbp
	.seh_setframe	%rbp, 0
	subq	$48, %rsp
	.seh_stackalloc	48
	.seh_endprologue
	call	__main
	movl	$1234, -8(%rbp)
	movl	$0, -4(%rbp)
.L7:
	cmpl	$0, -4(%rbp)
	jle	.L6
	leaq	.LC0(%rip), %rax
	movq	%rax, %rcx
	call	printf
.L6:
	leaq	.LC1(%rip), %rax
	movq	%rax, %rcx
	call	printf
	leaq	-12(%rbp), %rax
	movq	%rax, %rdx
	leaq	.LC2(%rip), %rax
	movq	%rax, %rcx
	call	scanf
	addl	$1, -4(%rbp)
	movl	-12(%rbp), %eax
	cmpl	%eax, -8(%rbp)
	jne	.L7
	leaq	.LC3(%rip), %rax
	movq	%rax, %rcx
	call	printf
	movl	$0, %eax
	addq	$48, %rsp
	popq	%rbp
	ret
	.seh_endproc
	.def	__main;	.scl	2;	.type	32;	.endef
	.ident	"GCC: (Rev1, Built by MSYS2 project) 14.2.0"
	.def	__mingw_vfscanf;	.scl	2;	.type	32;	.endef
	.def	__mingw_vfprintf;	.scl	2;	.type	32;	.endef
